
 Start  Stop   Length Name                   Class
 00000H 00678H 00679H __X386_DATASEG_16      DATA16
 00680H 04030H 039B1H __X386_CODESEG_16      CODE
 000004040H 000024F18H 000020ED9H _TEXT                  CODE 32-bit
 000024F1CH 00002805FH 000003144H _DATA                  DATA 32-bit
 000028060H 000028060H 000000000H XIB                    DATA 32-bit
 000028060H 000028067H 000000008H XI                     DATA 32-bit
 000028068H 000028068H 000000000H XIE                    DATA 32-bit
 000028068H 000028068H 000000000H XCB                    DATA 32-bit
 000028068H 000028068H 000000000H XC                     DATA 32-bit
 000028068H 000028068H 000000000H XCE                    DATA 32-bit
 000028068H 000028068H 000000000H CONST                  CONST 32-bit
 000028068H 00002A5BBH 000002554H _BSS                   BSS 32-bit
 00002A5C0H 00002A82DH 00000026EH c_common               BSS
 00002A830H 00002A830H 000000000H HUGE_BSS               HUGE_BSS 32-bit
 00002A830H 00002A830H 000000000H EEND                   ENDBSS 32-bit
 00002A830H 00002A830H 000000000H STACK                  STACK 32-bit

 Origin   Group
 0404:0   DGROUP
 0000:0   __X386_GROUP_16

  Address         Publics by Name

 0404:C0A0       ??0LayerNet@@QAC@HHHHHHHHH@Z
 0404:000157B8       ??0SingularValueDecomp@@QAC@HHH@Z
 0404:00017CDC       ??0TrainingSet@@QAC@HHHH@Z
 0404:C62F       ??1LayerNet@@QAC@XZ
 0404:00015966       ??1SingularValueDecomp@@QAC@XZ
 0404:00017D38       ??1TrainingSet@@QAC@XZ
 0404:0001A770       ??2@YAPAXI@Z
 0404:0001A758       ??3@YAXPAX@Z
 0404:000267EA       ?__new_handler_type@@3HA
 0404:00023DE8       ?_new_handler@@3P6AHI@ZA
 0404:0001DE5A       ?_set_new_handler@@YAP6AHI@ZP6AHI@Z@Z
 0404:2F70       ?act_func@@YANN@Z
 0404:2F93       ?actderiv@@YANN@Z
 0404:2A76       ?activity_cc@@YAXPAN00HH@Z
 0404:2A00       ?activity_cr@@YAXPAN00HH@Z
 0404:298C       ?activity_rr@@YAXPAN00HH@Z
 0404:000154E3       ?adjust@LayerNet@@AACXPAV1@0HN@Z
 0404:4294       ?an1@LayerNet@@QACXPAVTrainingSet@@PAULearnParams@@@Z
 0404:44E0       ?an2@LayerNet@@QACXPAVTrainingSet@@PAULearnParams@@@Z
 0404:305C       ?anneal1@LayerNet@@AACHPAVTrainingSet@@PAULearnParams@@PAV1@HH@Z
 0404:36D4       ?anneal2@LayerNet@@AACHPAVTrainingSet@@PAULearnParams@@PAV1@2H@Z
 0404:47B0       ?anx_dd@LayerNet@@QACXPAVTrainingSet@@PAULearnParams@@@Z
 0404:000171F1       ?backsub@SingularValueDecomp@@QACXNPAN@Z
 0404:00012734       ?beta@@YANHH@Z
 0404:000128CC       ?cauchy@@YAXHNPAN@Z
 0404:6287       ?check_grad@LayerNet@@AACXPAVTrainingSet@@PAN@Z
 0404:F281       ?check_lm_grad@LayerNet@@AACXPAVTrainingSet@@PAN@Z
 0404:5374       ?classify_from_file@LayerNet@@QACXPADN@Z
 0404:5648       ?conjgrad@LayerNet@@AACNPAVTrainingSet@@HNNH@Z
 0404:C6D4       ?copy_weights@LayerNet@@AACXPAV1@0@Z
 0404:6AF0       ?direcmin@LayerNet@@AACNPAVTrainingSet@@NHNNPAN1@Z
 0404:8400       ?dotprod@@YANHPAN0@Z
 0404:8554       ?dotprodc@@YAXHPAN000@Z
 0404:893F       ?dotprodcr@@YANHPAN0@Z
 0404:B9C6       ?errderiv_c@LayerNet@@AACXHHPANNN00@Z
 0404:B3B4       ?errderiv_r@LayerNet@@AACXHHPANN00@Z
 0404:00012148       ?error_message@@YAXPAD@Z
 0404:8B48       ?execute_from_file@LayerNet@@QACXPAD0@Z
 0404:61B7       ?find_new_dir@LayerNet@@AACXNPAN00@Z
 0404:90EF       ?flrand@@YAJXZ
 0404:0001258D       ?gamma@@YANH@Z
 0404:607F       ?gamma@LayerNet@@AACNPAN0@Z
 0404:6906       ?get_control_line@@YAXPADPAHPAPAU_iobuf@@@Z
 0404:91FC       ?gradient@LayerNet@@AACNPAVTrainingSet@@PAN11@Z
 0404:9C80       ?gradient_complex@LayerNet@@AACNPAVTrainingSet@@PAN11@Z
 0404:9264       ?gradient_real@LayerNet@@AACNPAVTrainingSet@@PAN11@Z
 0404:2FC9       ?inverse_act@@YANN@Z
 0404:2BAD       ?inverse_act_cc@@YAXPAN0@Z
 0404:E01A       ?learn@LayerNet@@QACXPAVTrainingSet@@PAULearnParams@@@Z
 0404:E7F4       ?lev_marq@LayerNet@@AACNPAVTrainingSet@@HNNH@Z
 0404:F8B8       ?limit@@YAXHPANN@Z
 0404:F940       ?lm_core@LayerNet@@AACNPAVTrainingSet@@PAN111@Z
 0404:000101CE       ?lm_core_complex@LayerNet@@AACNPAVTrainingSet@@PAN111@Z
 0404:F9AE       ?lm_core_real@LayerNet@@AACNPAVTrainingSet@@PAN111@Z
 0404:00026580       ?mem_log@@3HA
 0404:00026584       ?mem_name@@3QADA
 0404:00022A04       ?mem_used@@3JA
 0404:00011D60       ?memalloc@@YAPAXI@Z
 0404:000120CB       ?memclose@@YAXXZ
 0404:00011E50       ?memfree@@YAXPAX@Z
 0404:000121A8       ?memory_message@@YAXPAD@Z
 0404:00011F4A       ?memrealloc@@YAPAXPAXI@Z
 0404:00012078       ?memtext@@YAXPAD@Z
 0404:8375       ?negate_dir@LayerNet@@AACXPAN@Z
 0404:00012147       ?nomemclose@@YAXXZ
 0404:00012464       ?normal@@YANXZ
 0404:00012178       ?normal_message@@YAXPAD@Z
 0404:000124E1       ?normal_pair@@YAXPAN0@Z
 0404:000120C6       ?notext@@YAXPAD@Z
 0404:000121F4       ?ParseDouble@@YANPAPAD@Z
 0404:2D25       ?partial_cc@@YAXPAN00H0000H@Z
 0404:2C68       ?partial_cr@@YAXPAN00H00H@Z
 0404:00012278       ?perturb@LayerNet@@AACXPAV1@0NHW4RandomDensity@@@Z
 0404:7FD8       ?preserve@LayerNet@@AACXPAN@Z
 0404:0001150A       ?process_cc@LayerNet@@AACXPANHNH00000@Z
 0404:00010C0C       ?process_cr@LayerNet@@AACXPANHN00000@Z
 0404:FCC5       ?process_real@LayerNet@@AACXPANHN00000@Z
 0404:00012190       ?progress_message@@YAXPAD@Z
 0404:00012782       ?rand_sphere@@YAXHPAN@Z
 0404:000129E0       ?regress@LayerNet@@AACNPAVTrainingSet@@PAVSingularValueDecomp@@@Z
 0404:000138AC       ?regrs_dd@LayerNet@@QACXPAVTrainingSet@@PAULearnParams@@@Z
 0404:5108       ?reset_confusion@LayerNet@@QACXXZ
 0404:521D       ?save_confusion@LayerNet@@QACXPAD@Z
 0404:0001DE48       ?set_new_handler@@YAP6AXXZP6AXXZ@Z
 0404:90BE       ?sflrand@@YAXJ@Z
 0404:00013E88       ?shake@@YAXHPAN0NW4RandomDensity@@@Z
 0404:00015178       ?shift@LayerNet@@AACNPANPAV1@NH@Z
 0404:512B       ?show_confusion@LayerNet@@QACXXZ
 0404:67E4       ?split_control_line@@YAXPADPAPADPAH12@Z
 0404:00013F18       ?ssg@LayerNet@@AACXPAVTrainingSet@@PAULearnParams@@H@Z
 0404:0001456E       ?ssg_core@LayerNet@@AACHPAVTrainingSet@@PAULearnParams@@PAV1@2PAN333H@Z
 0404:69A3       ?stack_control_file@@YAXPADPAHPAPAU_iobuf@@@Z
 0404:80BB       ?step_out@LayerNet@@AACXNPAN0@Z
 0404:F031       ?step_out_lm@LayerNet@@AACXNPAN@Z
 0404:6AB4       ?str_to_upr@@YAXPAD@Z
 0404:000159D3       ?svdcmp@SingularValueDecomp@@QACXXZ
 0404:00017420       ?test_from_file@LayerNet@@QACXPAD@Z
 0404:00017D68       ?train@TrainingSet@@QACXPADH@Z
 0404:C8EF       ?trial@LayerNet@@QACXPAN@Z
 0404:CF2E       ?trial_error@LayerNet@@QACNPAVTrainingSet@@@Z
 0404:91A2       ?unifrand@@YANXZ
 0404:82EB       ?update_dir@LayerNet@@AACXNPAN@Z
 0404:000121C0       ?user_pressed_escape@@YAHXZ
 0404:00012160       ?warning_message@@YAXPAD@Z
 0404:E0D6       ?wt_print@LayerNet@@QACXPAD@Z
 0404:00018294       ?wt_restore@@YAPAVLayerNet@@PAD@Z
 0404:E6E7       ?wt_restore@LayerNet@@QACXPAU_iobuf@@@Z
 0404:000181A8       ?wt_save@@YAXPAVLayerNet@@HPAD@Z
 0404:E5D5       ?wt_save@LayerNet@@QACHPAU_iobuf@@@Z
 0404:C7BD       ?zero_weights@LayerNet@@AACXXZ
 0404:0002300C       __8087
 0404:00020D16       __87TOPSW@
 0404:00018A77       ___dtype
 0404:000185E2       ___faterr
 0404:0001D470       ___fcloseall
 0404:00023DEE       ___fhnd_info
 0404:0001CE3C       ___floatfmt
 0404:0001E90C       ___flt_rounds
 0404:0001F940       ___fpclassify_d
 0404:0001FC57       ___fpclassify_f
 0404:0001ECB9       ___matherr
 0404:00026762       ___pfloatfmt
 0404:00026766       ___pscanfloat
 0404:00020DA4       ___stk_ovfl
 0404:0001EC78       ___trigerr
 0000:04D2  Abs  __acrtused
 0404:0001C924       __allocinit
 0404:00023874       __allocp
 0404:0001F87C       __arcerr
 0404:00023014       __argc
 0404:00023018       __argv
 0404:0001EA27       __asincos87
 0404:0001EE69       __AsQNaN
 0404:0001E9B7       __atan287
 0404:000265D8       __atexit_tbl
 0404:000265D4       __atexitp
 0404:0002386C       __baslnk
 0404:000186A5       __c_exit
 0404:0001E970       __ceil87
 0404:0001868C       __cexit
 0404:0001A717       __chdir
 0404:0001A735       __chdrive
 0404:0212       __chkstack
 0404:0201       __chkstk
 0404:0001E968       __chop87
 0404:00018598       __cinit
 0404:00020D6F       __clear87
 0404:00020D78       __control87
 0404:0002337C       __ctype
 0404:00018C50       __DADD@
 24F1:000C       __data_bottom
 0404:0001968B       __DBLFLT@
 0404:00020D26       __DBLINT87@
 0404:00019275       __DBLINT@
 0404:00020D47       __DBLLNG87@
 0404:000192B8       __DBLLNG@
 0404:00020D1B       __DBLTO87@
 0404:00019293       __DBLULNG@
 0404:00019250       __DBLUNS@
 0404:00018B20       __DCMP@
 0404:00018B1C       __DCMPEXC@
 0404:00018E6A       __DDIV@
 0404:00019050       __DMUL@
 0404:000185B9       __dodtors
 0404:00023002       __dos
 0404:00023008       __DOS386_environ
 0404:00023004       __DOS386_version
 0404:0001E16F       __dos_sethandlecount
 0404:00023037       __doserrno
 0404:00019EC1       __DOSIGN
 0404:00020E18       __dosx_free_protected_ptr
 0404:00020E42       __dosx_get_abs_address
 0404:00020DB8       __dosx_memlock
 0404:00020DE3       __dosx_memunlock
 0404:00020DE9       __dosx_mk_protected_ptr
 24F1:0020       __dosx_zero_base_ptr
 24F1:001E       __dosx_zero_base_selector
 0404:00018C21       __DSUB@
 0404:00018AB4       __DTST0@
 0404:00018AB0       __DTST0EXC@
 0404:00020D12       __DTST87@
 0404:00018AA8       __DTST@
 0404:00023010       __envptr
 24F1:0028       __exe_type
 0404:000185D9       __exit
 0404:0001EBFB       __exp87
 0404:000205C8       __FADD@
 0404:00023CF0       __fcloseallp
 0404:000204F0       __FCMP@
 0404:000204EC       __FCMPEXC@
 0404:00020CBC       __FCOMPP@
 0404:000207B9       __FDIV@
 0404:00023063       __fe_cur_env
 0404:0001D4F4       __fgetc_nlock
 0404:0001DD7B       __fillbuf
 0404:0001E96C       __floor87
 0404:0001960B       __FLTDBL@
 0404:00020AD9       __FLTINT@
 0404:00020B06       __FLTLNG@
 0404:00020D63       __FLTTO87@
 0404:00020AED       __FLTUNLNG@
 0404:00020AC0       __FLTUNS@
 0404:00018760       __fltused
 0404:0001DC4B       __flushbu
 0404:0001DB48       __flushterm
 0404:0001E99A       __fmod87
 0404:00023DEC       __fmode
 0404:00020953       __FMUL@
 0404:00020AA8       __FNEG@
 0404:0001E29C       __FOPEN
 0404:00020D9F       __fpreset
 0404:0001D49C       __fputc_nlock
 0404:0002059F       __FSUB@
 0404:00020CDA       __FTEST0@
 0404:00020CFA       __FTEST@
 0404:00020490       __FTST0@
 0404:0002048C       __FTST0EXC@
 0404:00020484       __FTST@
 0404:021C       __get_video_selector
 0404:0001A74D       __getdrive
 24F1:0010       __heapbottom
 0404:0002675E       __hookexitp
 0404:000191DE       __INTDBL@
 0404:00020AAE       __INTFLT@
 0404:000239F0       __iob
 0404:0002676A       __iob2
 0404:0001EE22       __largestNaN
 0404:0001921D       __LNGDBL@
 0404:00020BC4       __LNGFLT@
 0404:0001EBE9       __log1087
 0404:0001EBE5       __log87
 0404:0002388B       __malloc_handler
 0404:00023FE0       __mdays
 0404:0001C9B8       __nfree
 0404:0001C928       __nmalloc
 0404:00020311       __nrealloc
 0404:00023002       __osmajor
 0404:00023003       __osminor
 0404:0002301C       __osmode
 24F1:000C       __pastdata
 0404:00019881       __pformat
 0404:0001E934       __poly87
 0404:0001EC09       __pow87
 0404:00023000       __psp
 0404:0001D17F       __SCANFLOAT
 0404:0001EA95       __sincostan87
 0404:00019814       __snprintf
 0404:0001E920       __sqrt87
 0404:00023104       __stack
 0404:00020D6A       __status87
 0404:00018761       __STI_fltused
 0404:0001D492       __STI_io_ctor
 0404:00023027       __thread1
 0404:0001921A       __ULNGDBL@
 0404:000191DB       __UNSDBL@
 0404:00020BB7       __UNSFLT@
 0404:0001982E       __vsnprintf
 24F1:0014       __x386_break
 0000:0678       __x386_conv_mem_resv
 0404:0001862E       __x386_coproc_init
 0404:00020E97       __x386_coreleft
 24F1:2226       __x386_data_16_alias
 0000:00D6       __x386_dbg_hook
 0000:0674       __x386_dos_buffer_size
 0000:0112       __x386_esp0
 0000:0146       __x386_esp3
 0000:046F       __x386_fm
 24F1:3148       __x386_free_protected_ptr
 24F1:314C       __x386_get_abs_address
 0404:000A       __x386_init
 0000:0467       __x386_lbp
 0404:00020E5A       __x386_map_physical_address
 0404:00020DB8       __x386_memlock
 0000:0493       __x386_memstatus
 0404:00020DE3       __x386_memunlock
 24F1:3144       __x386_mk_protected_ptr
 0068:0036       __x386_start
 24F1:0026       __x386_version
 24F1:0020       __x386_zero_base_ptr
 24F1:001E       __x386_zero_base_selector
 0404:00020BD4       _abs
 0404:0001E1F2       _access
 0404:0001A5F4       _atof
 0404:00020BE0       _atoi
 0404:00020BE0       _atol
 0404:0001ED18       _ceil
 0404:0001ED6D       _ceilf
 0404:0001A717       _chdir
 0404:0001E12C       _close
 0404:0001FCD8       _copysign
 0404:0001FCF4       _copysignf
 0404:000203A0       _coreleft
 0404:0001C622       _cos
 0404:0001C5FD       _cosf
 0404:0001AF5E       _cosh
 0404:0001AF39       _coshf
 0404:0001E0C3       _creat
 0404:0001DF33       _dos_close
 0404:0001E0D4       _dos_creat
 0404:0001A6E4       _dos_get_ctrl_break
 0404:0001A6CE       _dos_get_verify
 0404:0001A6EF       _dos_getdiskfreespace
 0404:0001DEEA       _dos_open
 0404:0001A6D5       _dos_set_ctrl_break
 0404:0001A6C0       _dos_set_verify
 0404:0001CA74       _ecvt
 0404:00023037       _errno
 0404:000186BE       _exit
 0404:0001B4EC       _exp
 0404:0001B4D0       _expf
 0404:0001B48C       _expm1
 0404:0001B43C       _expm1f
 0404:0001FD0C       _fabs
 0404:0001FD1A       _fabsf
 0404:0001A7CC       _fclose
 0404:0001CA94       _fcvt
 0404:0002301D       _FE_DFL_ENV
 0404:0001FD57       _feclearexcept
 0404:0001FE72       _fegetenv
 0404:0001FD89       _fegetexcept
 0404:0001FE15       _fegetprec
 0404:0001FDB9       _fegetround
 0404:0001FF06       _feprocentry
 0404:0001FECF       _fesetenv
 0404:0001FD9B       _fesetexcept
 0404:0001FE2E       _fesetprec
 0404:0001FDD2       _fesetround
 0404:0001FD40       _fetestexcept
 0404:0001D3FC       _fflush
 0404:0001D4F4       _fgetc
 0404:0001D6C1       _fgetpos
 0404:0001BF9C       _fgets
 0404:0001E1C1       _filesize
 0404:0001ED9D       _floor
 0404:0001EDF2       _floorf
 0404:000203FC       _flushall
 0404:0001F5B4       _fmod
 0404:0001F539       _fmodf
 0404:0001A868       _fopen
 0404:0001CA6C       _FP_SEG
 0404:0001970C       _fprintf
 0404:0001D49C       _fputc
 0404:0001C0D8       _fread
 0404:0001A768       _free
 0404:0001DC1A       _FREEBUF
 0404:0001E4D0       _frexp
 0404:0001F775       _frexpf
 0404:00019EF4       _fscanf
 0404:0001D575       _fseek
 0404:0001D6E3       _fsetpos
 0404:0001D656       _ftell
 0404:00023108       _full
 0404:0001C21C       _fwrite
 0404:0001CD04       _gcvt
 0404:0001A637       _getch
 0404:0001A65E       _getche
 0404:0001CA5C       _getDS
 0404:0001C088       _gets
 0404:0001AAC7       _hypot
 0404:0001DED8       _isatty
 0404:0001E240       _itoa
 0404:0001A614       _kbhit
 0404:00020BD4       _labs
 0404:0001E40C       _ldexp
 0404:0001F794       _ldexpf
 0404:0001ABB1       _log
 0404:0001ABF2       _log10
 0404:0001ABCD       _log10f
 0404:0001AB4C       _log1p
 0404:0001AB04       _log1pf
 0404:0001E71F       _logb
 0404:0001AB8C       _logf
 0404:0001E197       _lseek
 0404:0001E240       _ltoa
 0404:02AC       _main
 0404:00018684       _malloc
 0404:0001FCB0       _matherr
 0404:00020428       _memicmp
 0404:0001BFF4       _memset
 0404:0001CA62       _MK_FP
 0404:0001A72D       _mkdir
 0404:0001F6DE       _modf
 0404:0001F640       _modff
 0404:0001FD24       _nan
 0404:0001FD2C       _nanf
 0404:0001FD32       _nans
 0404:0001FD3A       _nansf
 0404:0001EEDB       _nearbyint
 0404:0001EF32       _nearbyintf
 0404:0001E556       _nextafter
 0404:0001FABA       _nextafterf
 0404:0001DF56       _open
 0404:0002310C       _partial
 0404:0001F8C8       _poly
 0404:0001B754       _pow
 0404:0001B6A8       _powf
 0404:0001973E       _printf
 0404:0001C028       _rand
 0404:0001C04A       _random
 0404:0001C079       _randomize
 0404:0001FF94       _read
 0404:0001C354       _realloc
 0404:0001F06A       _remainder
 0404:0001F052       _remainderf
 0404:0001E155       _remove
 0404:0001F2E2       _remquo
 0404:0001F088       _remquof
 0404:0001E144       _rename
 0404:0001E7BD       _rint
 0404:0001F9A0       _rintf
 0404:0001A731       _rmdir
 0404:0001EFE7       _rndtol
 0404:0001EFFF       _rndtonl
 0404:0001EE78       _round
 0404:0001EEAF       _roundf
 0404:01C7       _sbrk
 0404:0001F7B3       _scalb
 0404:0001F809       _scalbf
 0404:00019F15       _scanf
 0404:0001DB6F       _setbuf
 0404:0001DB97       _setvbuf
 0404:0001C5E1       _sin
 0404:0001C5BC       _sinf
 0404:0001AF1D       _sinh
 0404:0001AEF8       _sinhf
 0404:0001E089       _sopen
 0404:000197A1       _sprintf
 0404:0001A908       _sqrt
 0404:0001A8EC       _sqrtf
 0404:00023480       _sqrtpnt5
 0404:0001C06F       _srand
 0404:00019F73       _sscanf
 0404:0001A8A8       _strcat
 0404:000203A8       _strncpy
 0404:0001D6FC       _strtod
 0404:0001C378       _tan
 0404:0001C35C       _tanf
 0404:0001B248       _tanh
 0404:0001B22C       _tanhf
 0404:0001FF20       _time
 0404:0001EF7E       _trunc
 0404:0001EFB8       _truncf
 0404:0001E220       _ultoa
 0404:0001D53C       _ungetc
 0404:0001A689       _ungetch
 0404:0001E155       _unlink
 0404:00019723       _vfprintf
 0404:00019752       _vprintf
 0404:000197B8       _vsprintf
 0404:0002013C       _write
 0404:00018A29       dget_dtype
 0404:00018995       dget_dtype_pair
 0404:0001879C       dleft_justify
 0404:0001888A       dnorm
 0404:000187B0       dround
 0404:00018778       dunnorm
 0404:0001894C       exception
 0404:000195C5       fget_dtype
 0404:00020C2C       fget_dtype_pair
 0404:00019446       fleft_justify
 0404:000193C8       fnorm
 0404:00019457       fright_justify
 0404:000194A6       fround
 0404:0001939D       funnorm
 0404:00023FFC       roundto0

  Address         Publics by Value

 0000:00D6       __x386_dbg_hook
 0000:0112       __x386_esp0
 0000:0146       __x386_esp3
 0000:0467       __x386_lbp
 0000:046F       __x386_fm
 0000:0493       __x386_memstatus
 0000:04D2  Abs  __acrtused
 0000:0674       __x386_dos_buffer_size
 0000:0678       __x386_conv_mem_resv
 0068:0036       __x386_start
 0404:000A       __x386_init
 0404:01C7       _sbrk
 0404:0201       __chkstk
 0404:0212       __chkstack
 0404:021C       __get_video_selector
 0404:02AC       _main
 0404:298C       ?activity_rr@@YAXPAN00HH@Z
 0404:2A00       ?activity_cr@@YAXPAN00HH@Z
 0404:2A76       ?activity_cc@@YAXPAN00HH@Z
 0404:2BAD       ?inverse_act_cc@@YAXPAN0@Z
 0404:2C68       ?partial_cr@@YAXPAN00H00H@Z
 0404:2D25       ?partial_cc@@YAXPAN00H0000H@Z
 0404:2F70       ?act_func@@YANN@Z
 0404:2F93       ?actderiv@@YANN@Z
 0404:2FC9       ?inverse_act@@YANN@Z
 0404:305C       ?anneal1@LayerNet@@AACHPAVTrainingSet@@PAULearnParams@@PAV1@HH@Z
 0404:36D4       ?anneal2@LayerNet@@AACHPAVTrainingSet@@PAULearnParams@@PAV1@2H@Z
 0404:4294       ?an1@LayerNet@@QACXPAVTrainingSet@@PAULearnParams@@@Z
 0404:44E0       ?an2@LayerNet@@QACXPAVTrainingSet@@PAULearnParams@@@Z
 0404:47B0       ?anx_dd@LayerNet@@QACXPAVTrainingSet@@PAULearnParams@@@Z
 0404:5108       ?reset_confusion@LayerNet@@QACXXZ
 0404:512B       ?show_confusion@LayerNet@@QACXXZ
 0404:521D       ?save_confusion@LayerNet@@QACXPAD@Z
 0404:5374       ?classify_from_file@LayerNet@@QACXPADN@Z
 0404:5648       ?conjgrad@LayerNet@@AACNPAVTrainingSet@@HNNH@Z
 0404:607F       ?gamma@LayerNet@@AACNPAN0@Z
 0404:61B7       ?find_new_dir@LayerNet@@AACXNPAN00@Z
 0404:6287       ?check_grad@LayerNet@@AACXPAVTrainingSet@@PAN@Z
 0404:67E4       ?split_control_line@@YAXPADPAPADPAH12@Z
 0404:6906       ?get_control_line@@YAXPADPAHPAPAU_iobuf@@@Z
 0404:69A3       ?stack_control_file@@YAXPADPAHPAPAU_iobuf@@@Z
 0404:6AB4       ?str_to_upr@@YAXPAD@Z
 0404:6AF0       ?direcmin@LayerNet@@AACNPAVTrainingSet@@NHNNPAN1@Z
 0404:7FD8       ?preserve@LayerNet@@AACXPAN@Z
 0404:80BB       ?step_out@LayerNet@@AACXNPAN0@Z
 0404:82EB       ?update_dir@LayerNet@@AACXNPAN@Z
 0404:8375       ?negate_dir@LayerNet@@AACXPAN@Z
 0404:8400       ?dotprod@@YANHPAN0@Z
 0404:8554       ?dotprodc@@YAXHPAN000@Z
 0404:893F       ?dotprodcr@@YANHPAN0@Z
 0404:8B48       ?execute_from_file@LayerNet@@QACXPAD0@Z
 0404:90BE       ?sflrand@@YAXJ@Z
 0404:90EF       ?flrand@@YAJXZ
 0404:91A2       ?unifrand@@YANXZ
 0404:91FC       ?gradient@LayerNet@@AACNPAVTrainingSet@@PAN11@Z
 0404:9264       ?gradient_real@LayerNet@@AACNPAVTrainingSet@@PAN11@Z
 0404:9C80       ?gradient_complex@LayerNet@@AACNPAVTrainingSet@@PAN11@Z
 0404:B3B4       ?errderiv_r@LayerNet@@AACXHHPANN00@Z
 0404:B9C6       ?errderiv_c@LayerNet@@AACXHHPANNN00@Z
 0404:C0A0       ??0LayerNet@@QAC@HHHHHHHHH@Z
 0404:C62F       ??1LayerNet@@QAC@XZ
 0404:C6D4       ?copy_weights@LayerNet@@AACXPAV1@0@Z
 0404:C7BD       ?zero_weights@LayerNet@@AACXXZ
 0404:C8EF       ?trial@LayerNet@@QACXPAN@Z
 0404:CF2E       ?trial_error@LayerNet@@QACNPAVTrainingSet@@@Z
 0404:E01A       ?learn@LayerNet@@QACXPAVTrainingSet@@PAULearnParams@@@Z
 0404:E0D6       ?wt_print@LayerNet@@QACXPAD@Z
 0404:E5D5       ?wt_save@LayerNet@@QACHPAU_iobuf@@@Z
 0404:E6E7       ?wt_restore@LayerNet@@QACXPAU_iobuf@@@Z
 0404:E7F4       ?lev_marq@LayerNet@@AACNPAVTrainingSet@@HNNH@Z
 0404:F031       ?step_out_lm@LayerNet@@AACXNPAN@Z
 0404:F281       ?check_lm_grad@LayerNet@@AACXPAVTrainingSet@@PAN@Z
 0404:F8B8       ?limit@@YAXHPANN@Z
 0404:F940       ?lm_core@LayerNet@@AACNPAVTrainingSet@@PAN111@Z
 0404:F9AE       ?lm_core_real@LayerNet@@AACNPAVTrainingSet@@PAN111@Z
 0404:FCC5       ?process_real@LayerNet@@AACXPANHN00000@Z
 0404:000101CE       ?lm_core_complex@LayerNet@@AACNPAVTrainingSet@@PAN111@Z
 0404:00010C0C       ?process_cr@LayerNet@@AACXPANHN00000@Z
 0404:0001150A       ?process_cc@LayerNet@@AACXPANHNH00000@Z
 0404:00011D60       ?memalloc@@YAPAXI@Z
 0404:00011E50       ?memfree@@YAXPAX@Z
 0404:00011F4A       ?memrealloc@@YAPAXPAXI@Z
 0404:00012078       ?memtext@@YAXPAD@Z
 0404:000120C6       ?notext@@YAXPAD@Z
 0404:000120CB       ?memclose@@YAXXZ
 0404:00012147       ?nomemclose@@YAXXZ
 0404:00012148       ?error_message@@YAXPAD@Z
 0404:00012160       ?warning_message@@YAXPAD@Z
 0404:00012178       ?normal_message@@YAXPAD@Z
 0404:00012190       ?progress_message@@YAXPAD@Z
 0404:000121A8       ?memory_message@@YAXPAD@Z
 0404:000121C0       ?user_pressed_escape@@YAHXZ
 0404:000121F4       ?ParseDouble@@YANPAPAD@Z
 0404:00012278       ?perturb@LayerNet@@AACXPAV1@0NHW4RandomDensity@@@Z
 0404:00012464       ?normal@@YANXZ
 0404:000124E1       ?normal_pair@@YAXPAN0@Z
 0404:0001258D       ?gamma@@YANH@Z
 0404:00012734       ?beta@@YANHH@Z
 0404:00012782       ?rand_sphere@@YAXHPAN@Z
 0404:000128CC       ?cauchy@@YAXHNPAN@Z
 0404:000129E0       ?regress@LayerNet@@AACNPAVTrainingSet@@PAVSingularValueDecomp@@@Z
 0404:000138AC       ?regrs_dd@LayerNet@@QACXPAVTrainingSet@@PAULearnParams@@@Z
 0404:00013E88       ?shake@@YAXHPAN0NW4RandomDensity@@@Z
 0404:00013F18       ?ssg@LayerNet@@AACXPAVTrainingSet@@PAULearnParams@@H@Z
 0404:0001456E       ?ssg_core@LayerNet@@AACHPAVTrainingSet@@PAULearnParams@@PAV1@2PAN333H@Z
 0404:00015178       ?shift@LayerNet@@AACNPANPAV1@NH@Z
 0404:000154E3       ?adjust@LayerNet@@AACXPAV1@0HN@Z
 0404:000157B8       ??0SingularValueDecomp@@QAC@HHH@Z
 0404:00015966       ??1SingularValueDecomp@@QAC@XZ
 0404:000159D3       ?svdcmp@SingularValueDecomp@@QACXXZ
 0404:000171F1       ?backsub@SingularValueDecomp@@QACXNPAN@Z
 0404:00017420       ?test_from_file@LayerNet@@QACXPAD@Z
 0404:00017CDC       ??0TrainingSet@@QAC@HHHH@Z
 0404:00017D38       ??1TrainingSet@@QAC@XZ
 0404:00017D68       ?train@TrainingSet@@QACXPADH@Z
 0404:000181A8       ?wt_save@@YAXPAVLayerNet@@HPAD@Z
 0404:00018294       ?wt_restore@@YAPAVLayerNet@@PAD@Z
 0404:00018598       __cinit
 0404:000185B9       __dodtors
 0404:000185D9       __exit
 0404:000185E2       ___faterr
 0404:0001862E       __x386_coproc_init
 0404:00018684       _malloc
 0404:0001868C       __cexit
 0404:000186A5       __c_exit
 0404:000186BE       _exit
 0404:00018760       __fltused
 0404:00018761       __STI_fltused
 0404:00018778       dunnorm
 0404:0001879C       dleft_justify
 0404:000187B0       dround
 0404:0001888A       dnorm
 0404:0001894C       exception
 0404:00018995       dget_dtype_pair
 0404:00018A29       dget_dtype
 0404:00018A77       ___dtype
 0404:00018AA8       __DTST@
 0404:00018AB0       __DTST0EXC@
 0404:00018AB4       __DTST0@
 0404:00018B1C       __DCMPEXC@
 0404:00018B20       __DCMP@
 0404:00018C21       __DSUB@
 0404:00018C50       __DADD@
 0404:00018E6A       __DDIV@
 0404:00019050       __DMUL@
 0404:000191DB       __UNSDBL@
 0404:000191DE       __INTDBL@
 0404:0001921A       __ULNGDBL@
 0404:0001921D       __LNGDBL@
 0404:00019250       __DBLUNS@
 0404:00019275       __DBLINT@
 0404:00019293       __DBLULNG@
 0404:000192B8       __DBLLNG@
 0404:0001939D       funnorm
 0404:000193C8       fnorm
 0404:00019446       fleft_justify
 0404:00019457       fright_justify
 0404:000194A6       fround
 0404:000195C5       fget_dtype
 0404:0001960B       __FLTDBL@
 0404:0001968B       __DBLFLT@
 0404:0001970C       _fprintf
 0404:00019723       _vfprintf
 0404:0001973E       _printf
 0404:00019752       _vprintf
 0404:000197A1       _sprintf
 0404:000197B8       _vsprintf
 0404:00019814       __snprintf
 0404:0001982E       __vsnprintf
 0404:00019881       __pformat
 0404:00019EC1       __DOSIGN
 0404:00019EF4       _fscanf
 0404:00019F15       _scanf
 0404:00019F73       _sscanf
 0404:0001A5F4       _atof
 0404:0001A614       _kbhit
 0404:0001A637       _getch
 0404:0001A65E       _getche
 0404:0001A689       _ungetch
 0404:0001A6C0       _dos_set_verify
 0404:0001A6CE       _dos_get_verify
 0404:0001A6D5       _dos_set_ctrl_break
 0404:0001A6E4       _dos_get_ctrl_break
 0404:0001A6EF       _dos_getdiskfreespace
 0404:0001A717       __chdir
 0404:0001A717       _chdir
 0404:0001A72D       _mkdir
 0404:0001A731       _rmdir
 0404:0001A735       __chdrive
 0404:0001A74D       __getdrive
 0404:0001A758       ??3@YAXPAX@Z
 0404:0001A768       _free
 0404:0001A770       ??2@YAPAXI@Z
 0404:0001A7CC       _fclose
 0404:0001A868       _fopen
 0404:0001A8A8       _strcat
 0404:0001A8EC       _sqrtf
 0404:0001A908       _sqrt
 0404:0001AAC7       _hypot
 0404:0001AB04       _log1pf
 0404:0001AB4C       _log1p
 0404:0001AB8C       _logf
 0404:0001ABB1       _log
 0404:0001ABCD       _log10f
 0404:0001ABF2       _log10
 0404:0001AEF8       _sinhf
 0404:0001AF1D       _sinh
 0404:0001AF39       _coshf
 0404:0001AF5E       _cosh
 0404:0001B22C       _tanhf
 0404:0001B248       _tanh
 0404:0001B43C       _expm1f
 0404:0001B48C       _expm1
 0404:0001B4D0       _expf
 0404:0001B4EC       _exp
 0404:0001B6A8       _powf
 0404:0001B754       _pow
 0404:0001BF9C       _fgets
 0404:0001BFF4       _memset
 0404:0001C028       _rand
 0404:0001C04A       _random
 0404:0001C06F       _srand
 0404:0001C079       _randomize
 0404:0001C088       _gets
 0404:0001C0D8       _fread
 0404:0001C21C       _fwrite
 0404:0001C354       _realloc
 0404:0001C35C       _tanf
 0404:0001C378       _tan
 0404:0001C5BC       _sinf
 0404:0001C5E1       _sin
 0404:0001C5FD       _cosf
 0404:0001C622       _cos
 0404:0001C924       __allocinit
 0404:0001C928       __nmalloc
 0404:0001C9B8       __nfree
 0404:0001CA5C       _getDS
 0404:0001CA62       _MK_FP
 0404:0001CA6C       _FP_SEG
 0404:0001CA74       _ecvt
 0404:0001CA94       _fcvt
 0404:0001CD04       _gcvt
 0404:0001CE3C       ___floatfmt
 0404:0001D17F       __SCANFLOAT
 0404:0001D3FC       _fflush
 0404:0001D470       ___fcloseall
 0404:0001D492       __STI_io_ctor
 0404:0001D49C       __fputc_nlock
 0404:0001D49C       _fputc
 0404:0001D4F4       __fgetc_nlock
 0404:0001D4F4       _fgetc
 0404:0001D53C       _ungetc
 0404:0001D575       _fseek
 0404:0001D656       _ftell
 0404:0001D6C1       _fgetpos
 0404:0001D6E3       _fsetpos
 0404:0001D6FC       _strtod
 0404:0001DB48       __flushterm
 0404:0001DB6F       _setbuf
 0404:0001DB97       _setvbuf
 0404:0001DC1A       _FREEBUF
 0404:0001DC4B       __flushbu
 0404:0001DD7B       __fillbuf
 0404:0001DE48       ?set_new_handler@@YAP6AXXZP6AXXZ@Z
 0404:0001DE5A       ?_set_new_handler@@YAP6AHI@ZP6AHI@Z@Z
 0404:0001DED8       _isatty
 0404:0001DEEA       _dos_open
 0404:0001DF33       _dos_close
 0404:0001DF56       _open
 0404:0001E089       _sopen
 0404:0001E0C3       _creat
 0404:0001E0D4       _dos_creat
 0404:0001E12C       _close
 0404:0001E144       _rename
 0404:0001E155       _remove
 0404:0001E155       _unlink
 0404:0001E16F       __dos_sethandlecount
 0404:0001E197       _lseek
 0404:0001E1C1       _filesize
 0404:0001E1F2       _access
 0404:0001E220       _ultoa
 0404:0001E240       _itoa
 0404:0001E240       _ltoa
 0404:0001E29C       __FOPEN
 0404:0001E40C       _ldexp
 0404:0001E4D0       _frexp
 0404:0001E556       _nextafter
 0404:0001E71F       _logb
 0404:0001E7BD       _rint
 0404:0001E90C       ___flt_rounds
 0404:0001E920       __sqrt87
 0404:0001E934       __poly87
 0404:0001E968       __chop87
 0404:0001E96C       __floor87
 0404:0001E970       __ceil87
 0404:0001E99A       __fmod87
 0404:0001E9B7       __atan287
 0404:0001EA27       __asincos87
 0404:0001EA95       __sincostan87
 0404:0001EBE5       __log87
 0404:0001EBE9       __log1087
 0404:0001EBFB       __exp87
 0404:0001EC09       __pow87
 0404:0001EC78       ___trigerr
 0404:0001ECB9       ___matherr
 0404:0001ED18       _ceil
 0404:0001ED6D       _ceilf
 0404:0001ED9D       _floor
 0404:0001EDF2       _floorf
 0404:0001EE22       __largestNaN
 0404:0001EE69       __AsQNaN
 0404:0001EE78       _round
 0404:0001EEAF       _roundf
 0404:0001EEDB       _nearbyint
 0404:0001EF32       _nearbyintf
 0404:0001EF7E       _trunc
 0404:0001EFB8       _truncf
 0404:0001EFE7       _rndtol
 0404:0001EFFF       _rndtonl
 0404:0001F052       _remainderf
 0404:0001F06A       _remainder
 0404:0001F088       _remquof
 0404:0001F2E2       _remquo
 0404:0001F539       _fmodf
 0404:0001F5B4       _fmod
 0404:0001F640       _modff
 0404:0001F6DE       _modf
 0404:0001F775       _frexpf
 0404:0001F794       _ldexpf
 0404:0001F7B3       _scalb
 0404:0001F809       _scalbf
 0404:0001F87C       __arcerr
 0404:0001F8C8       _poly
 0404:0001F940       ___fpclassify_d
 0404:0001F9A0       _rintf
 0404:0001FABA       _nextafterf
 0404:0001FC57       ___fpclassify_f
 0404:0001FCB0       _matherr
 0404:0001FCD8       _copysign
 0404:0001FCF4       _copysignf
 0404:0001FD0C       _fabs
 0404:0001FD1A       _fabsf
 0404:0001FD24       _nan
 0404:0001FD2C       _nanf
 0404:0001FD32       _nans
 0404:0001FD3A       _nansf
 0404:0001FD40       _fetestexcept
 0404:0001FD57       _feclearexcept
 0404:0001FD89       _fegetexcept
 0404:0001FD9B       _fesetexcept
 0404:0001FDB9       _fegetround
 0404:0001FDD2       _fesetround
 0404:0001FE15       _fegetprec
 0404:0001FE2E       _fesetprec
 0404:0001FE72       _fegetenv
 0404:0001FECF       _fesetenv
 0404:0001FF06       _feprocentry
 0404:0001FF20       _time
 0404:0001FF94       _read
 0404:0002013C       _write
 0404:00020311       __nrealloc
 0404:000203A0       _coreleft
 0404:000203A8       _strncpy
 0404:000203FC       _flushall
 0404:00020428       _memicmp
 0404:00020484       __FTST@
 0404:0002048C       __FTST0EXC@
 0404:00020490       __FTST0@
 0404:000204EC       __FCMPEXC@
 0404:000204F0       __FCMP@
 0404:0002059F       __FSUB@
 0404:000205C8       __FADD@
 0404:000207B9       __FDIV@
 0404:00020953       __FMUL@
 0404:00020AA8       __FNEG@
 0404:00020AAE       __INTFLT@
 0404:00020AC0       __FLTUNS@
 0404:00020AD9       __FLTINT@
 0404:00020AED       __FLTUNLNG@
 0404:00020B06       __FLTLNG@
 0404:00020BB7       __UNSFLT@
 0404:00020BC4       __LNGFLT@
 0404:00020BD4       _abs
 0404:00020BD4       _labs
 0404:00020BE0       _atoi
 0404:00020BE0       _atol
 0404:00020C2C       fget_dtype_pair
 0404:00020CBC       __FCOMPP@
 0404:00020CDA       __FTEST0@
 0404:00020CFA       __FTEST@
 0404:00020D12       __DTST87@
 0404:00020D16       __87TOPSW@
 0404:00020D1B       __DBLTO87@
 0404:00020D26       __DBLINT87@
 0404:00020D47       __DBLLNG87@
 0404:00020D63       __FLTTO87@
 0404:00020D6A       __status87
 0404:00020D6F       __clear87
 0404:00020D78       __control87
 0404:00020D9F       __fpreset
 0404:00020DA4       ___stk_ovfl
 0404:00020DB8       __dosx_memlock
 0404:00020DB8       __x386_memlock
 0404:00020DE3       __dosx_memunlock
 0404:00020DE3       __x386_memunlock
 0404:00020DE9       __dosx_mk_protected_ptr
 0404:00020E18       __dosx_free_protected_ptr
 0404:00020E42       __dosx_get_abs_address
 0404:00020E5A       __x386_map_physical_address
 0404:00020E97       __x386_coreleft
 24F1:000C       __data_bottom
 24F1:000C       __pastdata
 24F1:0010       __heapbottom
 24F1:0014       __x386_break
 24F1:001E       __dosx_zero_base_selector
 24F1:001E       __x386_zero_base_selector
 24F1:0020       __dosx_zero_base_ptr
 24F1:0020       __x386_zero_base_ptr
 24F1:0026       __x386_version
 24F1:0028       __exe_type
 0404:00022A04       ?mem_used@@3JA
 0404:00023000       __psp
 0404:00023002       __dos
 0404:00023002       __osmajor
 0404:00023003       __osminor
 0404:00023004       __DOS386_version
 0404:00023008       __DOS386_environ
 0404:0002300C       __8087
 0404:00023010       __envptr
 0404:00023014       __argc
 0404:00023018       __argv
 0404:0002301C       __osmode
 0404:0002301D       _FE_DFL_ENV
 0404:00023027       __thread1
 0404:00023037       __doserrno
 0404:00023037       _errno
 0404:00023063       __fe_cur_env
 24F1:2226       __x386_data_16_alias
 0404:00023104       __stack
 0404:00023108       _full
 0404:0002310C       _partial
 0404:0002337C       __ctype
 0404:00023480       _sqrtpnt5
 0404:0002386C       __baslnk
 0404:00023874       __allocp
 0404:0002388B       __malloc_handler
 0404:000239F0       __iob
 0404:00023CF0       __fcloseallp
 0404:00023DE8       ?_new_handler@@3P6AHI@ZA
 0404:00023DEC       __fmode
 0404:00023DEE       ___fhnd_info
 0404:00023FE0       __mdays
 0404:00023FFC       roundto0
 24F1:3144       __x386_mk_protected_ptr
 24F1:3148       __x386_free_protected_ptr
 24F1:314C       __x386_get_abs_address
 0404:00026580       ?mem_log@@3HA
 0404:00026584       ?mem_name@@3QADA
 0404:000265D4       __atexitp
 0404:000265D8       __atexit_tbl
 0404:0002675E       __hookexitp
 0404:00026762       ___pfloatfmt
 0404:00026766       ___pscanfloat
 0404:0002676A       __iob2
 0404:000267EA       ?__new_handler_type@@3HA

Program entry point at 0068:0000
